target datalayout = "e-m:e-p270:32:32-p271:32:32-p272:64:64-i64:64-i128:128-f80:128-n8:16:32:64-S128"
target triple = "x86_64-pc-linux-gnu"

@.str.18 = private unnamed_addr constant [20 x i8] c"matching %p and %p\0A\00", align 1
@.str.19 = private unnamed_addr constant [17 x i8] c"match result %d\0A\00", align 1

; Function Attrs: nounwind uwtable
define internal void @debug_print(ptr noundef %0, ...) #0 {
  %2 = alloca ptr, align 8
  store ptr %0, ptr %2, align 8, !tbaa !18
  ret void
}

; Function Attrs: nounwind uwtable
define internal i32 @template_match(ptr noundef %0, ptr noundef %1, i32 noundef %2) #0 {
  %4 = alloca i32, align 4
  %5 = alloca ptr, align 8
  %6 = alloca ptr, align 8
  %7 = alloca i32, align 4
  %8 = alloca i32, align 4
  %9 = alloca i32, align 4
  %10 = alloca i32, align 4
  store ptr %0, ptr %5, align 8, !tbaa !3
  store ptr %1, ptr %6, align 8, !tbaa !3
  store i32 %2, ptr %7, align 4, !tbaa !9
  call void @llvm.lifetime.start.p0(i64 4, ptr %8) #4
  store i32 1, ptr %8, align 4, !tbaa !9
  %11 = load ptr, ptr %5, align 8, !tbaa !3
  %12 = load ptr, ptr %6, align 8, !tbaa !3
  call void (ptr, ...) @debug_print(ptr noundef @.str.18, ptr noundef %11, ptr noundef %12)
  %13 = call i32 @ossl_prov_is_running()
  %14 = icmp ne i32 %13, 0
  br i1 %14, label %16, label %15

15:                                               ; preds = %3
  store i32 0, ptr %4, align 4
  store i32 1, ptr %9, align 4
  br label %61

16:                                               ; preds = %3
  %17 = load i32, ptr %7, align 4, !tbaa !9
  %18 = and i32 %17, 4
  %19 = icmp ne i32 %18, 0
  br i1 %19, label %20, label %32

20:                                               ; preds = %16
  %21 = load i32, ptr %8, align 4, !tbaa !9
  %22 = icmp ne i32 %21, 0
  br i1 %22, label %23, label %29

23:                                               ; preds = %20
  %24 = load ptr, ptr %5, align 8, !tbaa !3
  %25 = icmp ne ptr %24, null
  br i1 %25, label %26, label %29

26:                                               ; preds = %23
  %27 = load ptr, ptr %6, align 8, !tbaa !3
  %28 = icmp ne ptr %27, null
  br label %29

29:                                               ; preds = %26, %23, %20
  %30 = phi i1 [ false, %23 ], [ false, %20 ], [ %28, %26 ]
  %31 = zext i1 %30 to i32
  store i32 %31, ptr %8, align 4, !tbaa !9
  br label %32

32:                                               ; preds = %29, %16
  %33 = load i32, ptr %7, align 4, !tbaa !9
  %34 = and i32 %33, 3
  %35 = icmp ne i32 %34, 0
  br i1 %35, label %36, label %58

36:                                               ; preds = %32
  call void @llvm.lifetime.start.p0(i64 4, ptr %10) #4
  store i32 0, ptr %10, align 4, !tbaa !9
  %37 = load i32, ptr %7, align 4, !tbaa !9
  %38 = and i32 %37, 2
  %39 = icmp ne i32 %38, 0
  br i1 %39, label %40, label %41

40:                                               ; preds = %36
  br label %41

41:                                               ; preds = %40, %36
  %42 = load i32, ptr %10, align 4, !tbaa !9
  %43 = icmp ne i32 %42, 0
  br i1 %43, label %49, label %44

44:                                               ; preds = %41
  %45 = load i32, ptr %7, align 4, !tbaa !9
  %46 = and i32 %45, 1
  %47 = icmp ne i32 %46, 0
  br i1 %47, label %48, label %49

48:                                               ; preds = %44
  br label %49

49:                                               ; preds = %48, %44, %41
  %50 = load i32, ptr %8, align 4, !tbaa !9
  %51 = icmp ne i32 %50, 0
  br i1 %51, label %52, label %55

52:                                               ; preds = %49
  %53 = load i32, ptr %10, align 4, !tbaa !9
  %54 = icmp ne i32 %53, 0
  br label %55

55:                                               ; preds = %52, %49
  %56 = phi i1 [ false, %49 ], [ %54, %52 ]
  %57 = zext i1 %56 to i32
  store i32 %57, ptr %8, align 4, !tbaa !9
  call void @llvm.lifetime.end.p0(i64 4, ptr %10) #4
  br label %58

58:                                               ; preds = %55, %32
  %59 = load i32, ptr %8, align 4, !tbaa !9
  call void (ptr, ...) @debug_print(ptr noundef @.str.19, i32 noundef %59)
  %60 = load i32, ptr %8, align 4, !tbaa !9
  store i32 %60, ptr %4, align 4
  store i32 1, ptr %9, align 4
  br label %61

61:                                               ; preds = %58, %15
  call void @llvm.lifetime.end.p0(i64 4, ptr %8) #4
  %62 = load i32, ptr %4, align 4
  ret i32 %62
}