; Function Attrs: nounwind uwtable
define internal range(i32 0, 2) i32 @template_match(ptr noundef readnone captures(address_is_null) %0, ptr noundef readnone captures(address_is_null) %1, i32 noundef %2) #0 {
  %4 = tail call i32 @ossl_prov_is_running() #3
  %.not = icmp eq i32 %4, 0
  br i1 %.not, label %9, label %5

5:                                                ; preds = %3
  %6 = and i32 %2, 4
  %.not15 = icmp eq i32 %6, 0
  %.not16 = icmp ne ptr %0, null
  %7 = icmp ne ptr %1, null
  %narrow = and i1 %.not16, %7
  %narrow18 = or i1 %narrow, %.not15
  %8 = and i32 %2, 3
  %.not17 = icmp eq i32 %8, 0
  %narrow19 = and i1 %.not17, %narrow18
  %spec.select = zext i1 %narrow19 to i32
  br label %9

9:                                                ; preds = %3, %5
  %.0 = phi i32 [ %spec.select, %5 ], [ 0, %3 ]
  ret i32 %.0
}